target datalayout = "e-m:e-p270:32:32-p271:32:32-p272:64:64-i64:64-i128:128-f80:128-n8:16:32:64-S128"
target triple = "x86_64-unknown-linux-gnu"

@.str.5 = private unnamed_addr constant [9 x i8] c"rewriter\00", align 1
@.str.20 = private unnamed_addr constant [5 x i8] c"true\00", align 1
@.str.22 = private unnamed_addr constant [6 x i8] c"false\00", align 1
@.str.37 = private unnamed_addr constant [5 x i8] c"flat\00", align 1
@.str.38 = private unnamed_addr constant [4 x i8] c"som\00", align 1
@.str.39 = private unnamed_addr constant [10 x i8] c"hoist_mul\00", align 1
@.str.40 = private unnamed_addr constant [10 x i8] c"hoist_ite\00", align 1
@.str.41 = private unnamed_addr constant [11 x i8] c"som_blowup\00", align 1
@.str.42 = private unnamed_addr constant [41 x i8] c"put polynomials in sum-of-monomials form\00", align 1
@.str.43 = private unnamed_addr constant [98 x i8] c"maximum increase of monomials generated when putting a polynomial in sum-of-monomials normal form\00", align 1
@.str.44 = private unnamed_addr constant [3 x i8] c"10\00", align 1
@.str.45 = private unnamed_addr constant [74 x i8] c"hoist multiplication over summation to minimize number of multiplications\00", align 1
@.str.46 = private unnamed_addr constant [44 x i8] c"hoist shared summands under ite expressions\00", align 1
@.str.47 = private unnamed_addr constant [69 x i8] c"create nary applications for and,or,+,*,bvadd,bvmul,bvand,bvor,bvxor\00", align 1

; Function Attrs: mustprogress uwtable
define linkonce_odr hidden void @_ZN20poly_rewriter_params20collect_param_descrsER12param_descrs(ptr noundef nonnull align 8 dereferenceable(8) %d) #4 comdat align 2 {
entry:
  %d.addr = alloca ptr, align 8
  store ptr %d, ptr %d.addr, align 8
  %0 = load ptr, ptr %d.addr, align 8
  call void @_ZN12param_descrs6insertEPKc12cmd_arg_kindS1_S1_S1_(ptr noundef nonnull align 8 dereferenceable(8) %0, ptr noundef @.str.38, i32 noundef 1, ptr noundef @.str.42, ptr noundef @.str.22, ptr noundef @.str.5)
  %1 = load ptr, ptr %d.addr, align 8
  call void @_ZN12param_descrs6insertEPKc12cmd_arg_kindS1_S1_S1_(ptr noundef nonnull align 8 dereferenceable(8) %1, ptr noundef @.str.41, i32 noundef 0, ptr noundef @.str.43, ptr noundef @.str.44, ptr noundef @.str.5)
  %2 = load ptr, ptr %d.addr, align 8
  call void @_ZN12param_descrs6insertEPKc12cmd_arg_kindS1_S1_S1_(ptr noundef nonnull align 8 dereferenceable(8) %2, ptr noundef @.str.39, i32 noundef 1, ptr noundef @.str.45, ptr noundef @.str.22, ptr noundef @.str.5)
  %3 = load ptr, ptr %d.addr, align 8
  call void @_ZN12param_descrs6insertEPKc12cmd_arg_kindS1_S1_S1_(ptr noundef nonnull align 8 dereferenceable(8) %3, ptr noundef @.str.40, i32 noundef 1, ptr noundef @.str.46, ptr noundef @.str.22, ptr noundef @.str.5)
  %4 = load ptr, ptr %d.addr, align 8
  call void @_ZN12param_descrs6insertEPKc12cmd_arg_kindS1_S1_S1_(ptr noundef nonnull align 8 dereferenceable(8) %4, ptr noundef @.str.37, i32 noundef 1, ptr noundef @.str.47, ptr noundef @.str.20, ptr noundef @.str.5)
  ret void
}

; Function Attrs: mustprogress uwtable
define weak_odr hidden void @_ZN13poly_rewriterI19arith_rewriter_coreE16get_param_descrsER12param_descrs(ptr noundef nonnull align 8 dereferenceable(8) %r) #4 comdat align 2 {
entry:
  %r.addr = alloca ptr, align 8
  store ptr %r, ptr %r.addr, align 8
  %0 = load ptr, ptr %r.addr, align 8
  call void @_ZN20poly_rewriter_params20collect_param_descrsER12param_descrs(ptr noundef nonnull align 8 dereferenceable(8) %0)
  ret void
}

; Function Attrs: mustprogress uwtable
define hidden void @_ZN14arith_rewriter16get_param_descrsER12param_descrs(ptr noundef nonnull align 8 dereferenceable(8) %r) #4 align 2 {
entry:
  %r.addr = alloca ptr, align 8
  store ptr %r, ptr %r.addr, align 8
  %0 = load ptr, ptr %r.addr, align 8
  call void @_ZN13poly_rewriterI19arith_rewriter_coreE16get_param_descrsER12param_descrs(ptr noundef nonnull align 8 dereferenceable(8) %0)
  %1 = load ptr, ptr %r.addr, align 8
  call void @_ZN21arith_rewriter_params20collect_param_descrsER12param_descrs(ptr noundef nonnull align 8 dereferenceable(8) %1)
  ret void
}