; Function Attrs: mustprogress uwtable
define hidden void @_ZN14arith_rewriter16get_param_descrsER12param_descrs(ptr noundef nonnull align 8 dereferenceable(8) %r) local_unnamed_addr #3 align 2 {
entry:
  tail call void @_ZN12param_descrs6insertEPKc12cmd_arg_kindS1_S1_S1_(ptr noundef nonnull align 8 dereferenceable(8) %r, ptr noundef nonnull @.str.38, i32 noundef 1, ptr noundef nonnull @.str.42, ptr noundef nonnull @.str.22, ptr noundef nonnull @.str.5)
  tail call void @_ZN12param_descrs6insertEPKc12cmd_arg_kindS1_S1_S1_(ptr noundef nonnull align 8 dereferenceable(8) %r, ptr noundef nonnull @.str.41, i32 noundef 0, ptr noundef nonnull @.str.43, ptr noundef nonnull @.str.44, ptr noundef nonnull @.str.5)
  tail call void @_ZN12param_descrs6insertEPKc12cmd_arg_kindS1_S1_S1_(ptr noundef nonnull align 8 dereferenceable(8) %r, ptr noundef nonnull @.str.39, i32 noundef 1, ptr noundef nonnull @.str.45, ptr noundef nonnull @.str.22, ptr noundef nonnull @.str.5)
  tail call void @_ZN12param_descrs6insertEPKc12cmd_arg_kindS1_S1_S1_(ptr noundef nonnull align 8 dereferenceable(8) %r, ptr noundef nonnull @.str.40, i32 noundef 1, ptr noundef nonnull @.str.46, ptr noundef nonnull @.str.22, ptr noundef nonnull @.str.5)
  tail call void @_ZN12param_descrs6insertEPKc12cmd_arg_kindS1_S1_S1_(ptr noundef nonnull align 8 dereferenceable(8) %r, ptr noundef nonnull @.str.37, i32 noundef 1, ptr noundef nonnull @.str.47, ptr noundef nonnull @.str.20, ptr noundef nonnull @.str.5)
  tail call void @_ZN21arith_rewriter_params20collect_param_descrsER12param_descrs(ptr noundef nonnull align 8 dereferenceable(8) %r)
  ret void
}